target datalayout = "e-m:e-p270:32:32-p271:32:32-p272:64:64-i64:64-i128:128-f80:128-n8:16:32:64-S128"
target triple = "x86_64-pc-linux-gnu"

@.str.9 = private unnamed_addr constant [12 x i8] c"Read failed\00", align 1
@.str.10 = private unnamed_addr constant [13 x i8] c"Write failed\00", align 1

; Function Attrs: nounwind uwtable
define hidden i32 @convertReturnVal(ptr noundef %0, i32 noundef %1, i8 noundef zeroext %2) #0 {
  %4 = alloca i32, align 4
  %5 = alloca ptr, align 8
  %6 = alloca i32, align 4
  %7 = alloca i8, align 1
  %8 = alloca ptr, align 8
  store ptr %0, ptr %5, align 8
  store i32 %1, ptr %6, align 4
  store i8 %2, ptr %7, align 1
  %9 = load i32, ptr %6, align 4
  %10 = icmp sgt i32 %9, 0
  br i1 %10, label %11, label %13

11:                                               ; preds = %3
  %12 = load i32, ptr %6, align 4
  store i32 %12, ptr %4, align 4
  br label %42

13:                                               ; preds = %3
  %14 = load i32, ptr %6, align 4
  %15 = icmp eq i32 %14, 0
  br i1 %15, label %16, label %21

16:                                               ; preds = %13
  %17 = load i8, ptr %7, align 1
  %18 = icmp ne i8 %17, 0
  br i1 %18, label %19, label %20

19:                                               ; preds = %16
  store i32 -1, ptr %4, align 4
  br label %42

20:                                               ; preds = %16
  store i32 0, ptr %4, align 4
  br label %42

21:                                               ; preds = %13
  %22 = call ptr @__errno_location() #5
  %23 = load i32, ptr %22, align 4
  %24 = icmp eq i32 %23, 11
  br i1 %24, label %29, label %25

25:                                               ; preds = %21
  %26 = call ptr @__errno_location() #5
  %27 = load i32, ptr %26, align 4
  %28 = icmp eq i32 %27, 11
  br i1 %28, label %29, label %30

29:                                               ; preds = %25, %21
  store i32 -2, ptr %4, align 4
  br label %42

30:                                               ; preds = %25
  %31 = call ptr @__errno_location() #5
  %32 = load i32, ptr %31, align 4
  %33 = icmp eq i32 %32, 4
  br i1 %33, label %34, label %35

34:                                               ; preds = %30
  store i32 -3, ptr %4, align 4
  br label %42

35:                                               ; preds = %30
  %36 = load i8, ptr %7, align 1
  %37 = zext i8 %36 to i32
  %38 = icmp ne i32 %37, 0
  %39 = select i1 %38, ptr @.str.9, ptr @.str.10
  store ptr %39, ptr %8, align 8
  %40 = load ptr, ptr %5, align 8
  %41 = load ptr, ptr %8, align 8
  call void @JNU_ThrowIOExceptionWithLastError(ptr noundef %40, ptr noundef %41)
  store i32 -5, ptr %4, align 4
  br label %42

42:                                               ; preds = %35, %34, %29, %20, %19, %11
  %43 = load i32, ptr %4, align 4
  ret i32 %43
}