; Function Attrs: nounwind uwtable
define hidden range(i32 -5, -2147483648) i32 @convertReturnVal(ptr noundef %0, i32 noundef %1, i8 noundef zeroext %2) local_unnamed_addr #0 {
  %4 = icmp sgt i32 %1, 0
  br i1 %4, label %14, label %5

5:                                                ; preds = %3
  %6 = icmp eq i32 %1, 0
  br i1 %6, label %7, label %8

7:                                                ; preds = %5
  %.not9 = icmp ne i8 %2, 0
  %. = sext i1 %.not9 to i32
  br label %14

8:                                                ; preds = %5
  %9 = tail call ptr @__errno_location() #8
  %10 = load i32, ptr %9, align 4
  switch i32 %10, label %12 [
    i32 11, label %14
    i32 4, label %11
  ]

11:                                               ; preds = %8
  br label %14

12:                                               ; preds = %8
  %.not = icmp eq i8 %2, 0
  %13 = select i1 %.not, ptr @.str.10, ptr @.str.9
  tail call void @JNU_ThrowIOExceptionWithLastError(ptr noundef %0, ptr noundef nonnull %13) #7
  br label %14

14:                                               ; preds = %8, %7, %3, %12, %11
  %.0 = phi i32 [ -3, %11 ], [ -5, %12 ], [ %1, %3 ], [ %., %7 ], [ -2, %8 ]
  ret i32 %.0
}